target datalayout = "e-m:e-p270:32:32-p271:32:32-p272:64:64-i64:64-i128:128-f80:128-n8:16:32:64-S128"
target triple = "x86_64-pc-linux-gnu"

%"class.grpc_core::RefCountedPtr" = type { ptr }
%"class.grpc_core::RefCounted" = type { %"class.grpc_core::PolymorphicRefCount", %"class.grpc_core::RefCount" }
%"class.grpc_core::PolymorphicRefCount" = type { ptr }
%"class.grpc_core::RefCount" = type { %"struct.std::atomic" }
%"struct.std::atomic" = type { %"struct.std::__atomic_base" }
%"struct.std::__atomic_base" = type { i64 }

; Function Attrs: alwaysinline mustprogress nounwind uwtable
define linkonce_odr noundef i64 @_ZNSt13__atomic_baseIlE9fetch_subElSt12memory_order(ptr noundef nonnull align 8 dereferenceable(8) %0, i64 noundef %1, i32 noundef %2) #16 comdat align 2 {
  %4 = alloca ptr, align 8
  %5 = alloca i64, align 8
  %6 = alloca i32, align 4
  %7 = alloca i64, align 8
  %8 = alloca i64, align 8
  store ptr %0, ptr %4, align 8, !tbaa !402
  store i64 %1, ptr %5, align 8, !tbaa !26
  store i32 %2, ptr %6, align 4, !tbaa !229
  %9 = load ptr, ptr %4, align 8
  %10 = getelementptr inbounds nuw %"struct.std::__atomic_base", ptr %9, i32 0, i32 0
  %11 = load i32, ptr %6, align 4, !tbaa !229
  %12 = load i64, ptr %5, align 8, !tbaa !26
  store i64 %12, ptr %7, align 8, !tbaa !26
  switch i32 %11, label %13 [
    i32 1, label %16
    i32 2, label %16
    i32 3, label %19
    i32 4, label %22
    i32 5, label %25
  ]

13:                                               ; preds = %3
  %14 = load i64, ptr %7, align 8
  %15 = atomicrmw sub ptr %10, i64 %14 monotonic, align 8
  store i64 %15, ptr %8, align 8
  br label %28

16:                                               ; preds = %3, %3
  %17 = load i64, ptr %7, align 8
  %18 = atomicrmw sub ptr %10, i64 %17 acquire, align 8
  store i64 %18, ptr %8, align 8
  br label %28

19:                                               ; preds = %3
  %20 = load i64, ptr %7, align 8
  %21 = atomicrmw sub ptr %10, i64 %20 release, align 8
  store i64 %21, ptr %8, align 8
  br label %28

22:                                               ; preds = %3
  %23 = load i64, ptr %7, align 8
  %24 = atomicrmw sub ptr %10, i64 %23 acq_rel, align 8
  store i64 %24, ptr %8, align 8
  br label %28

25:                                               ; preds = %3
  %26 = load i64, ptr %7, align 8
  %27 = atomicrmw sub ptr %10, i64 %26 seq_cst, align 8
  store i64 %27, ptr %8, align 8
  br label %28

28:                                               ; preds = %25, %22, %19, %16, %13
  %29 = load i64, ptr %8, align 8, !tbaa !26
  ret i64 %29
}

; Function Attrs: mustprogress nounwind uwtable
define linkonce_odr void @_ZNK9grpc_core11UnrefDeleteclIKN3tsi18SslSessionLRUCacheEEEvPT_(ptr noundef nonnull align 1 dereferenceable(1) %0, ptr noundef %1) #7 comdat align 2 {
  %3 = alloca ptr, align 8
  %4 = alloca ptr, align 8
  store ptr %0, ptr %3, align 8, !tbaa !400
  store ptr %1, ptr %4, align 8, !tbaa !254
  %5 = load ptr, ptr %4, align 8, !tbaa !254
  %6 = icmp eq ptr %5, null
  br i1 %6, label %11, label %7

7:                                                ; preds = %2
  %8 = load ptr, ptr %5, align 8, !tbaa !380
  %9 = getelementptr inbounds ptr, ptr %8, i64 1
  %10 = load ptr, ptr %9, align 8
  call void %10(ptr noundef nonnull align 8 dereferenceable(104) %5) #3
  br label %11

11:                                               ; preds = %7, %2
  ret void
}

; Function Attrs: mustprogress nounwind uwtable
define linkonce_odr noundef zeroext i1 @_ZN9grpc_core8RefCount5UnrefEv(ptr noundef nonnull align 8 dereferenceable(8) %0) #7 comdat align 2 {
  %2 = alloca ptr, align 8
  %3 = alloca i64, align 8
  store ptr %0, ptr %2, align 8, !tbaa !398
  %4 = load ptr, ptr %2, align 8
  call void @llvm.lifetime.start.p0(i64 8, ptr %3) #3
  %5 = getelementptr inbounds nuw %"class.grpc_core::RefCount", ptr %4, i32 0, i32 0
  %6 = call noundef i64 @_ZNSt13__atomic_baseIlE9fetch_subElSt12memory_order(ptr noundef nonnull align 8 dereferenceable(8) %5, i64 noundef 1, i32 noundef 4) #3
  store i64 %6, ptr %3, align 8, !tbaa !26
  %7 = load i64, ptr %3, align 8, !tbaa !26
  %8 = icmp eq i64 %7, 1
  call void @llvm.lifetime.end.p0(i64 8, ptr %3) #3
  ret i1 %8
}

; Function Attrs: inlinehint mustprogress nounwind uwtable
define linkonce_odr noundef ptr @_ZSt10__exchangeIPN3tsi18SslSessionLRUCacheEDnET_RS3_OT0_(ptr noundef nonnull align 8 dereferenceable(8) %0, ptr noundef nonnull align 8 dereferenceable(8) %1) #11 comdat {
  %3 = alloca ptr, align 8
  %4 = alloca ptr, align 8
  %5 = alloca ptr, align 8
  store ptr %0, ptr %3, align 8, !tbaa !394
  store ptr %1, ptr %4, align 8, !tbaa !216
  call void @llvm.lifetime.start.p0(i64 8, ptr %5) #3
  %6 = load ptr, ptr %3, align 8, !tbaa !394
  %7 = load ptr, ptr %6, align 8, !tbaa !254
  store ptr %7, ptr %5, align 8, !tbaa !254
  %8 = load ptr, ptr %3, align 8, !tbaa !394
  store ptr null, ptr %8, align 8, !tbaa !254
  %9 = load ptr, ptr %5, align 8, !tbaa !254
  call void @llvm.lifetime.end.p0(i64 8, ptr %5) #3
  ret ptr %9
}

; Function Attrs: mustprogress nounwind uwtable
define linkonce_odr void @_ZN9grpc_core13RefCountedPtrIN3tsi18SslSessionLRUCacheEEC2IS2_TnNSt9enable_ifIXsr3std14is_convertibleIPT_PS2_EE5valueEbE4typeELb1EEES7_(ptr noundef nonnull align 8 dereferenceable(8) %0, ptr noundef %1) unnamed_addr #7 comdat align 2 {
  %3 = alloca ptr, align 8
  %4 = alloca ptr, align 8
  store ptr %0, ptr %3, align 8, !tbaa !54
  store ptr %1, ptr %4, align 8, !tbaa !254
  %5 = load ptr, ptr %3, align 8
  %6 = getelementptr inbounds nuw %"class.grpc_core::RefCountedPtr", ptr %5, i32 0, i32 0
  %7 = load ptr, ptr %4, align 8, !tbaa !254
  store ptr %7, ptr %6, align 8, !tbaa !60
  ret void
}

; Function Attrs: noinline noreturn nounwind uwtable
define linkonce_odr hidden void @__clang_call_terminate(ptr noundef %0) #17 comdat {
  %2 = call ptr @__cxa_begin_catch(ptr %0) #3
  call void @_ZSt9terminatev() #29
  unreachable
}

; Function Attrs: mustprogress uwtable
define linkonce_odr void @_ZNK9grpc_core10RefCountedIN3tsi18SslSessionLRUCacheENS_19PolymorphicRefCountENS_11UnrefDeleteEE5UnrefEv(ptr noundef nonnull align 8 dereferenceable(16) %0) #4 comdat align 2 {
  %2 = alloca ptr, align 8
  store ptr %0, ptr %2, align 8, !tbaa !65
  %3 = load ptr, ptr %2, align 8
  %4 = getelementptr inbounds nuw %"class.grpc_core::RefCounted", ptr %3, i32 0, i32 1
  %5 = call noundef zeroext i1 @_ZN9grpc_core8RefCount5UnrefEv(ptr noundef nonnull align 8 dereferenceable(8) %4)
  %6 = zext i1 %5 to i64
  %7 = call i64 @llvm.expect.i64(i64 %6, i64 0)
  %8 = icmp ne i64 %7, 0
  br i1 %8, label %9, label %10

9:                                                ; preds = %1
  call void @_ZNK9grpc_core11UnrefDeleteclIKN3tsi18SslSessionLRUCacheEEEvPT_(ptr noundef nonnull align 1 dereferenceable(1) %3, ptr noundef %3)
  br label %10

10:                                               ; preds = %9, %1
  ret void
}

; Function Attrs: inlinehint mustprogress nounwind uwtable
define linkonce_odr noundef ptr @_ZSt8exchangeIPN3tsi18SslSessionLRUCacheEDnET_RS3_OT0_(ptr noundef nonnull align 8 dereferenceable(8) %0, ptr noundef nonnull align 8 dereferenceable(8) %1) #11 comdat personality ptr @__gxx_personality_v0 {
  %3 = alloca ptr, align 8
  %4 = alloca ptr, align 8
  store ptr %0, ptr %3, align 8, !tbaa !394
  store ptr %1, ptr %4, align 8, !tbaa !216
  %5 = load ptr, ptr %3, align 8, !tbaa !394
  %6 = load ptr, ptr %4, align 8, !tbaa !216
  %7 = invoke noundef ptr @_ZSt10__exchangeIPN3tsi18SslSessionLRUCacheEDnET_RS3_OT0_(ptr noundef nonnull align 8 dereferenceable(8) %5, ptr noundef nonnull align 8 dereferenceable(8) %6)
          to label %8 unwind label %9

8:                                                ; preds = %2
  ret ptr %7

9:                                                ; preds = %2
  %10 = landingpad { ptr, i32 }
          catch ptr null
  %11 = extractvalue { ptr, i32 } %10, 0
  call void @__clang_call_terminate(ptr %11) #29
  unreachable
}

; Function Attrs: inlinehint mustprogress uwtable
define linkonce_odr void @_ZN9grpc_core14MakeRefCountedIN3tsi18SslSessionLRUCacheEJRmEEENS_13RefCountedPtrIT_EEDpOT0_(ptr dead_on_unwind noalias writable sret(%"class.grpc_core::RefCountedPtr") align 8 %0, ptr noundef nonnull align 8 dereferenceable(8) %1) #10 comdat personality ptr @__gxx_personality_v0 {
  %3 = alloca ptr, align 8
  %4 = alloca ptr, align 8
  %5 = alloca ptr, align 8
  %6 = alloca i32, align 4
  store ptr %0, ptr %3, align 8
  store ptr %1, ptr %4, align 8, !tbaa !158
  %7 = call noalias noundef nonnull ptr @_Znwm(i64 noundef 104) #31
  %8 = load ptr, ptr %4, align 8, !tbaa !158
  %9 = load i64, ptr %8, align 8, !tbaa !26
  invoke void @_ZN3tsi18SslSessionLRUCacheC1Em(ptr noundef nonnull align 8 dereferenceable(104) %7, i64 noundef %9)
          to label %10 unwind label %11

10:                                               ; preds = %2
  call void @_ZN9grpc_core13RefCountedPtrIN3tsi18SslSessionLRUCacheEEC2IS2_TnNSt9enable_ifIXsr3std14is_convertibleIPT_PS2_EE5valueEbE4typeELb1EEES7_(ptr noundef nonnull align 8 dereferenceable(8) %0, ptr noundef %7)
  ret void

11:                                               ; preds = %2
  %12 = landingpad { ptr, i32 }
          cleanup
  %13 = extractvalue { ptr, i32 } %12, 0
  store ptr %13, ptr %5, align 8
  %14 = extractvalue { ptr, i32 } %12, 1
  store i32 %14, ptr %6, align 4
  call void @_ZdlPvm(ptr noundef %7, i64 noundef 104) #30
  br label %15

15:                                               ; preds = %11
  %16 = load ptr, ptr %5, align 8
  %17 = load i32, ptr %6, align 4
  %18 = insertvalue { ptr, i32 } poison, ptr %16, 0
  %19 = insertvalue { ptr, i32 } %18, i32 %17, 1
  resume { ptr, i32 } %19
}

; Function Attrs: mustprogress nounwind uwtable
define linkonce_odr void @_ZN9grpc_core13RefCountedPtrIN3tsi18SslSessionLRUCacheEED2Ev(ptr noundef nonnull align 8 dereferenceable(8) %0) unnamed_addr #7 comdat align 2 personality ptr @__gxx_personality_v0 {
  %2 = alloca ptr, align 8
  store ptr %0, ptr %2, align 8, !tbaa !54
  %3 = load ptr, ptr %2, align 8
  %4 = getelementptr inbounds nuw %"class.grpc_core::RefCountedPtr", ptr %3, i32 0, i32 0
  %5 = load ptr, ptr %4, align 8, !tbaa !60
  %6 = icmp ne ptr %5, null
  br i1 %6, label %7, label %11

7:                                                ; preds = %1
  %8 = getelementptr inbounds nuw %"class.grpc_core::RefCountedPtr", ptr %3, i32 0, i32 0
  %9 = load ptr, ptr %8, align 8, !tbaa !60
  invoke void @_ZNK9grpc_core10RefCountedIN3tsi18SslSessionLRUCacheENS_19PolymorphicRefCountENS_11UnrefDeleteEE5UnrefEv(ptr noundef nonnull align 8 dereferenceable(16) %9)
          to label %10 unwind label %12

10:                                               ; preds = %7
  br label %11

11:                                               ; preds = %10, %1
  ret void

12:                                               ; preds = %7
  %13 = landingpad { ptr, i32 }
          catch ptr null
  %14 = extractvalue { ptr, i32 } %13, 0
  call void @__clang_call_terminate(ptr %14) #29
  unreachable
}

; Function Attrs: mustprogress nounwind uwtable
define linkonce_odr noundef ptr @_ZN9grpc_core9CppImplOfIN3tsi18SslSessionLRUCacheE21tsi_ssl_session_cacheE5c_ptrEv(ptr noundef nonnull align 1 dereferenceable(1) %0) #7 comdat align 2 {
  %2 = alloca ptr, align 8
  store ptr %0, ptr %2, align 8, !tbaa !58
  %3 = load ptr, ptr %2, align 8
  ret ptr %3
}

; Function Attrs: mustprogress nounwind uwtable
define linkonce_odr noundef ptr @_ZN9grpc_core13RefCountedPtrIN3tsi18SslSessionLRUCacheEE7releaseEv(ptr noundef nonnull align 8 dereferenceable(8) %0) #7 comdat align 2 {
  %2 = alloca ptr, align 8
  %3 = alloca ptr, align 8
  store ptr %0, ptr %2, align 8, !tbaa !54
  %4 = load ptr, ptr %2, align 8
  %5 = getelementptr inbounds nuw %"class.grpc_core::RefCountedPtr", ptr %4, i32 0, i32 0
  call void @llvm.lifetime.start.p0(i64 8, ptr %3) #3
  store ptr null, ptr %3, align 8, !tbaa !56
  %6 = call noundef ptr @_ZSt8exchangeIPN3tsi18SslSessionLRUCacheEDnET_RS3_OT0_(ptr noundef nonnull align 8 dereferenceable(8) %5, ptr noundef nonnull align 8 dereferenceable(8) %3) #3
  call void @llvm.lifetime.end.p0(i64 8, ptr %3) #3
  ret ptr %6
}

; Function Attrs: mustprogress uwtable
define linkonce_odr void @_ZN3tsi18SslSessionLRUCache6CreateEm(ptr dead_on_unwind noalias writable sret(%"class.grpc_core::RefCountedPtr") align 8 %0, i64 noundef %1) #4 comdat align 2 {
  %3 = alloca ptr, align 8
  %4 = alloca i64, align 8
  store ptr %0, ptr %3, align 8
  store i64 %1, ptr %4, align 8, !tbaa !26
  call void @_ZN9grpc_core14MakeRefCountedIN3tsi18SslSessionLRUCacheEJRmEEENS_13RefCountedPtrIT_EEDpOT0_(ptr dead_on_unwind writable sret(%"class.grpc_core::RefCountedPtr") align 8 %0, ptr noundef nonnull align 8 dereferenceable(8) %4)
  ret void
}

; Function Attrs: mustprogress uwtable
define noundef ptr @_Z32tsi_ssl_session_cache_create_lrum(i64 noundef %0) #4 personality ptr @__gxx_personality_v0 {
  %2 = alloca i64, align 8
  %3 = alloca %"class.grpc_core::RefCountedPtr", align 8
  %4 = alloca ptr, align 8
  %5 = alloca i32, align 4
  store i64 %0, ptr %2, align 8, !tbaa !26
  call void @llvm.lifetime.start.p0(i64 8, ptr %3) #3
  %6 = load i64, ptr %2, align 8, !tbaa !26
  call void @_ZN3tsi18SslSessionLRUCache6CreateEm(ptr dead_on_unwind writable sret(%"class.grpc_core::RefCountedPtr") align 8 %3, i64 noundef %6)
  %7 = invoke noundef ptr @_ZN9grpc_core13RefCountedPtrIN3tsi18SslSessionLRUCacheEE7releaseEv(ptr noundef nonnull align 8 dereferenceable(8) %3)
          to label %8 unwind label %11

8:                                                ; preds = %1
  %9 = invoke noundef ptr @_ZN9grpc_core9CppImplOfIN3tsi18SslSessionLRUCacheE21tsi_ssl_session_cacheE5c_ptrEv(ptr noundef nonnull align 1 dereferenceable(1) %7)
          to label %10 unwind label %11

10:                                               ; preds = %8
  call void @_ZN9grpc_core13RefCountedPtrIN3tsi18SslSessionLRUCacheEED2Ev(ptr noundef nonnull align 8 dereferenceable(8) %3) #3
  call void @llvm.lifetime.end.p0(i64 8, ptr %3) #3
  ret ptr %9

11:                                               ; preds = %8, %1
  %12 = landingpad { ptr, i32 }
          cleanup
  %13 = extractvalue { ptr, i32 } %12, 0
  store ptr %13, ptr %4, align 8
  %14 = extractvalue { ptr, i32 } %12, 1
  store i32 %14, ptr %5, align 4
  call void @_ZN9grpc_core13RefCountedPtrIN3tsi18SslSessionLRUCacheEED2Ev(ptr noundef nonnull align 8 dereferenceable(8) %3) #3
  call void @llvm.lifetime.end.p0(i64 8, ptr %3) #3
  br label %15

15:                                               ; preds = %11
  %16 = load ptr, ptr %4, align 8
  %17 = load i32, ptr %5, align 4
  %18 = insertvalue { ptr, i32 } poison, ptr %16, 0
  %19 = insertvalue { ptr, i32 } %18, i32 %17, 1
  resume { ptr, i32 } %19
}