; Function Attrs: mustprogress uwtable
define noundef nonnull ptr @_Z32tsi_ssl_session_cache_create_lrum(i64 noundef %0) local_unnamed_addr #3 personality ptr @__gxx_personality_v0 {
  %2 = tail call noalias noundef nonnull dereferenceable(104) ptr @_Znwm(i64 noundef 104) #36, !noalias !32
  invoke void @_ZN3tsi18SslSessionLRUCacheC1Em(ptr noundef nonnull align 8 dereferenceable(104) %2, i64 noundef %0)
          to label %_ZN9grpc_core13RefCountedPtrIN3tsi18SslSessionLRUCacheEED2Ev.exit unwind label %3, !noalias !32

3:                                                ; preds = %1
  %4 = landingpad { ptr, i32 }
          cleanup
  tail call void @_ZdlPvm(ptr noundef nonnull %2, i64 noundef 104) #37, !noalias !32
  resume { ptr, i32 } %4

_ZN9grpc_core13RefCountedPtrIN3tsi18SslSessionLRUCacheEED2Ev.exit: ; preds = %1
  ret ptr %2
}